liblightspark.so.0.4 liblightspark0.4 #MINVER#
 _ZN10lightspark10ABCContextC1ERSi@Base 0.4.2
 _ZN10lightspark10ABCContextC2ERSi@Base 0.4.2
 _ZN10lightspark10Class_base13abandonObjectEPNS_8ASObjectE@Base 0.4.2
 _ZN10lightspark10Class_base13acquireObjectEPNS_8ASObjectE@Base 0.4.2
 _ZN10lightspark10Class_base14recursiveBuildEPNS_8ASObjectE@Base 0.4.2
 _ZN10lightspark10Class_base14setConstructorEPNS_9IFunctionE@Base 0.4.2
 _ZN10lightspark10Class_base18handleConstructionEPNS_8ASObjectEPKS2_jb@Base 0.4.2
 _ZN10lightspark10Class_base23addImplementedInterfaceEPS0_@Base 0.4.2
 _ZN10lightspark10Class_base23addImplementedInterfaceERKNS_9multinameE@Base 0.4.2
 _ZN10lightspark10Class_base7cleanUpEv@Base 0.4.2
 _ZN10lightspark10Class_base8toStringEb@Base 0.4.2
 _ZN10lightspark10Class_baseC1ERKNS_11tiny_stringE@Base 0.4.2
 _ZN10lightspark10Class_baseC2ERKNS_11tiny_stringE@Base 0.4.2
 _ZN10lightspark10Class_baseD0Ev@Base 0.4.2
 _ZN10lightspark10Class_baseD1Ev@Base 0.4.2
 _ZN10lightspark10Class_baseD2Ev@Base 0.4.2
 _ZN10lightspark10Downloader4stopEv@Base 0.4.2
 _ZN10lightspark10Downloader4waitEv@Base 0.4.2
 _ZN10lightspark10Downloader6appendEPhj@Base 0.4.2
 _ZN10lightspark10Downloader6setLenEj@Base 0.4.2
 _ZN10lightspark10Downloader7seekoffExSt12_Ios_SeekdirSt13_Ios_Openmode@Base 0.4.2-1
 _ZN10lightspark10Downloader7seekposESt4fposI11__mbstate_tESt13_Ios_Openmode@Base 0.4.2
 _ZN10lightspark10Downloader9setFailedEv@Base 0.4.2
 _ZN10lightspark10Downloader9underflowEv@Base 0.4.2
 _ZN10lightspark10DownloaderC1Ev@Base 0.4.2
 _ZN10lightspark10DownloaderC2Ev@Base 0.4.2
 _ZN10lightspark10DownloaderD0Ev@Base 0.4.2
 _ZN10lightspark10DownloaderD1Ev@Base 0.4.2
 _ZN10lightspark10DownloaderD2Ev@Base 0.4.2
 _ZN10lightspark10IThreadJob4stopEv@Base 0.4.2
 _ZN10lightspark11InputThread4waitEv@Base 0.4.2
 _ZN10lightspark11InputThreadC1EPNS_11SystemStateENS_6ENGINEEPv@Base 0.4.2
 _ZN10lightspark11InputThreadC2EPNS_11SystemStateENS_6ENGINEEPv@Base 0.4.2
 _ZN10lightspark11InputThreadD1Ev@Base 0.4.2
 _ZN10lightspark11InputThreadD2Ev@Base 0.4.2
 _ZN10lightspark11ParseThread4waitEv@Base 0.4.2
 _ZN10lightspark11ParseThreadC1EPNS_13RootMovieClipERSi@Base 0.4.2
 _ZN10lightspark11ParseThreadC2EPNS_13RootMovieClipERSi@Base 0.4.2
 _ZN10lightspark11SystemState13setParametersEPNS_8ASObjectE@Base 0.4.2
 _ZN10lightspark11SystemState15parseParametersERSi@Base 0.4.2
 _ZN10lightspark11SystemState15setRenderThreadEPNS_12RenderThreadE@Base 0.4.2
 _ZN10lightspark11SystemState15setShutdownFlagEv@Base 0.4.2
 _ZN10lightspark11SystemState4waitEv@Base 0.4.2
 _ZN10lightspark11SystemState6addJobEPNS_10IThreadJobE@Base 0.4.2
 _ZN10lightspark11SystemState6setUrlERKNS_11tiny_stringE@Base 0.4.2
 _ZN10lightspark11SystemStateC1Ev@Base 0.4.2
 _ZN10lightspark11SystemStateC2Ev@Base 0.4.2
 _ZN10lightspark12RenderThread4waitEv@Base 0.4.2
 _ZN10lightspark12RenderThreadC1EPNS_11SystemStateENS_6ENGINEEPv@Base 0.4.2
 _ZN10lightspark12RenderThreadC2EPNS_11SystemStateENS_6ENGINEEPv@Base 0.4.2
 _ZN10lightspark12RenderThreadD0Ev@Base 0.4.2
 _ZN10lightspark12RenderThreadD1Ev@Base 0.4.2
 _ZN10lightspark12RenderThreadD2Ev@Base 0.4.2
 _ZN10lightspark19CurlDownloadManager7destroyEPNS_10DownloaderE@Base 0.4.2
 _ZN10lightspark19CurlDownloadManager8downloadERKNS_11tiny_stringE@Base 0.4.2
 _ZN10lightspark5ABCVm4waitEv@Base 0.4.2
 _ZN10lightspark5ABCVm8addEventEPNS_15EventDispatcherEPNS_5EventE@Base 0.4.2
 _ZN10lightspark5ABCVmC1EPNS_11SystemStateE@Base 0.4.2
 _ZN10lightspark5ABCVmC2EPNS_11SystemStateE@Base 0.4.2
 _ZN10lightspark5ABCVmD1Ev@Base 0.4.2
 _ZN10lightspark5ABCVmD2Ev@Base 0.4.2
 _ZN10lightspark5Event10_getTargetEPNS_8ASObjectEPKS2_j@Base 0.4.2
 _ZN10lightspark5Event11buildTraitsEPNS_8ASObjectE@Base 0.4.2
 _ZN10lightspark5Event12_constructorEPNS_8ASObjectEPKS2_j@Base 0.4.2
 _ZN10lightspark5Event5sinitEPNS_10Class_baseE@Base 0.4.2
 _ZN10lightspark5Event8_getTypeEPNS_8ASObjectEPKS2_j@Base 0.4.2
 _ZN10lightspark5EventC1ERKNS_11tiny_stringEb@Base 0.4.2
 _ZN10lightspark5EventC2ERKNS_11tiny_stringEb@Base 0.4.2
 _ZN10lightspark5EventD0Ev@Base 0.4.2
 _ZN10lightspark5EventD1Ev@Base 0.4.2
 _ZN10lightspark5EventD2Ev@Base 0.4.2
 _ZN10lightspark8ASObject10getValueAtEi@Base 0.4.2
 _ZN10lightspark8ASObject10resetLevelEv@Base 0.4.2
 _ZN10lightspark8ASObject11buildTraitsEPS0_@Base 0.4.2
 _ZN10lightspark8ASObject12_constructorEPS0_PKS1_j@Base 0.4.2
 _ZN10lightspark8ASObject12numVariablesEv@Base 0.4.2
 _ZN10lightspark8ASObject12setPrototypeEPNS_10Class_baseE@Base 0.4.2
 _ZN10lightspark8ASObject14hasOwnPropertyEPS0_PKS1_j@Base 0.4.2
 _ZN10lightspark8ASObject16setGetterByQNameERKNS_11tiny_stringES3_PNS_9IFunctionE@Base 0.4.2
 _ZN10lightspark8ASObject16setSetterByQNameERKNS_11tiny_stringES3_PNS_9IFunctionE@Base 0.4.2
 _ZN10lightspark8ASObject18getVariableByQNameERKNS_11tiny_stringES3_b@Base 0.4.2
 _ZN10lightspark8ASObject18hasPropertyByQNameERKNS_11tiny_stringES3_@Base 0.4.2
 _ZN10lightspark8ASObject18setVariableByQNameERKNS_11tiny_stringES3_PS0_bb@Base 0.4.2
 _ZN10lightspark8ASObject19getVariableByStringERKSs@Base 0.4.2
 _ZN10lightspark8ASObject22getVariableByMultinameERKNS_9multinameEbb@Base 0.4.2
 _ZN10lightspark8ASObject22hasPropertyByMultinameERKNS_9multinameE@Base 0.4.2
 _ZN10lightspark8ASObject22setVariableByMultinameERKNS_9multinameEPS0_b@Base 0.4.2
 _ZN10lightspark8ASObject24getVariableByMultiname_iERKNS_9multinameE@Base 0.4.2
 _ZN10lightspark8ASObject24setVariableByMultiname_iERKNS_9multinameEi@Base 0.4.2-1
 _ZN10lightspark8ASObject25deleteVariableByMultinameERKNS_9multinameE@Base 0.4.2
 _ZN10lightspark8ASObject5toIntEv@Base 0.4.2
 _ZN10lightspark8ASObject6isLessEPS0_@Base 0.4.2
 _ZN10lightspark8ASObject6toUIntEv@Base 0.4.2
 _ZN10lightspark8ASObject7hasNextERjRb@Base 0.4.2
 _ZN10lightspark8ASObject7isEqualEPS0_@Base 0.4.2
 _ZN10lightspark8ASObject8initSlotEjRKNS_11tiny_stringES3_@Base 0.4.2
 _ZN10lightspark8ASObject8nextNameEjRPS0_@Base 0.4.2
 _ZN10lightspark8ASObject8toNumberEv@Base 0.4.2
 _ZN10lightspark8ASObject8toStringEb@Base 0.4.2
 _ZN10lightspark8ASObject9_maxlevelEv@Base 0.4.2
 _ZN10lightspark8ASObject9_toStringEPS0_PKS1_j@Base 0.4.2
 _ZN10lightspark8ASObject9nextValueEjRPS0_@Base 0.4.2
 _ZN10lightspark8ASObjectC1EPNS_7ManagerE@Base 0.4.2
 _ZN10lightspark8ASObjectC1ERKS0_@Base 0.4.2
 _ZN10lightspark8ASObjectC2EPNS_7ManagerE@Base 0.4.2
 _ZN10lightspark8ASObjectC2ERKS0_@Base 0.4.2
 _ZN10lightspark8ASObjectD0Ev@Base 0.4.2
 _ZN10lightspark8ASObjectD1Ev@Base 0.4.2
 _ZN10lightspark8ASObjectD2Ev@Base 0.4.2
 _ZN10lightspark8ASString10_getLengthEPNS_8ASObjectEPKS2_j@Base 0.4.2
 _ZN10lightspark8ASString10charCodeAtEPNS_8ASObjectEPKS2_j@Base 0.4.2
 _ZN10lightspark8ASString11buildTraitsEPNS_8ASObjectE@Base 0.4.2
 _ZN10lightspark8ASString11toLowerCaseEPNS_8ASObjectEPKS2_j@Base 0.4.2
 _ZN10lightspark8ASString5sinitEPNS_10Class_baseE@Base 0.4.2
 _ZN10lightspark8ASString5sliceEPNS_8ASObjectEPKS2_j@Base 0.4.2
 _ZN10lightspark8ASString5splitEPNS_8ASObjectEPKS2_j@Base 0.4.2
 _ZN10lightspark8ASString5toIntEv@Base 0.4.2
 _ZN10lightspark8ASString6concatEPNS_8ASObjectEPKS2_j@Base 0.4.2
 _ZN10lightspark8ASString6isLessEPNS_8ASObjectE@Base 0.4.2
 _ZN10lightspark8ASString6substrEPNS_8ASObjectEPKS2_j@Base 0.4.2
 _ZN10lightspark8ASString7indexOfEPNS_8ASObjectEPKS2_j@Base 0.4.2
 _ZN10lightspark8ASString7isEqualEPNS_8ASObjectE@Base 0.4.2
 _ZN10lightspark8ASString7replaceEPNS_8ASObjectEPKS2_j@Base 0.4.2
 _ZN10lightspark8ASString8toNumberEv@Base 0.4.2
 _ZN10lightspark8ASString8toStringEb@Base 0.4.2
 _ZN10lightspark8ASStringC1EPKc@Base 0.4.2
 _ZN10lightspark8ASStringC1ERKNS_11tiny_stringE@Base 0.4.2
 _ZN10lightspark8ASStringC1ERKSs@Base 0.4.2
 _ZN10lightspark8ASStringC1Ev@Base 0.4.2
 _ZN10lightspark8ASStringC2EPKc@Base 0.4.2
 _ZN10lightspark8ASStringC2ERKNS_11tiny_stringE@Base 0.4.2
 _ZN10lightspark8ASStringC2ERKSs@Base 0.4.2
 _ZN10lightspark8ASStringC2Ev@Base 0.4.2
 _ZN10lightspark9ClassNameINS_10DictionaryEE4nameE@Base 0.4.2
 _ZN10lightspark9ClassNameINS_10ErrorEventEE4nameE@Base 0.4.2
 _ZN10lightspark9ClassNameINS_10FocusEventEE4nameE@Base 0.4.2
 _ZN10lightspark9ClassNameINS_10LoaderInfoEE4nameE@Base 0.4.2
 _ZN10lightspark9ClassNameINS_10MorphShapeEE4nameE@Base 0.4.2
 _ZN10lightspark9ClassNameINS_10MouseEventEE4nameE@Base 0.4.2
 _ZN10lightspark9ClassNameINS_10StageAlignEE4nameE@Base 0.4.2
 _ZN10lightspark9ClassNameINS_10TimerEventEE4nameE@Base 0.4.2
 _ZN10lightspark9ClassNameINS_10URLRequestEE4nameE@Base 0.4.2
 _ZN10lightspark9ClassNameINS_11XMLDocumentEE4nameE@Base 0.4.2
 _ZN10lightspark9ClassNameINS_12CapabilitiesEE4nameE@Base 0.4.2
 _ZN10lightspark9ClassNameINS_12IOErrorEventEE4nameE@Base 0.4.2
 _ZN10lightspark9ClassNameINS_12SharedObjectEE4nameE@Base 0.4.2
 _ZN10lightspark9ClassNameINS_12URLVariablesEE4nameE@Base 0.4.2
 _ZN10lightspark9ClassNameINS_13DisplayObjectEE4nameE@Base 0.4.2
 _ZN10lightspark9ClassNameINS_13KeyboardEventEE4nameE@Base 0.4.2
 _ZN10lightspark9ClassNameINS_13LineScaleModeEE4nameE@Base 0.4.2
 _ZN10lightspark9ClassNameINS_13NetConnectionEE4nameE@Base 0.4.2
 _ZN10lightspark9ClassNameINS_13ProgressEventEE4nameE@Base 0.4.2
 _ZN10lightspark9ClassNameINS_14ColorTransformEE4nameE@Base 0.4.2
 _ZN10lightspark9ClassNameINS_14NetStatusEventEE4nameE@Base 0.4.2
 _ZN10lightspark9ClassNameINS_14ObjectEncodingEE4nameE@Base 0.4.2
 _ZN10lightspark9ClassNameINS_14SoundTransformEE4nameE@Base 0.4.2
 _ZN10lightspark9ClassNameINS_14StageScaleModeEE4nameE@Base 0.4.2
 _ZN10lightspark9ClassNameINS_15AsyncErrorEventEE4nameE@Base 0.4.2
 _ZN10lightspark9ClassNameINS_15EventDispatcherEE4nameE@Base 0.4.2
 _ZN10lightspark9ClassNameINS_15FullScreenEventEE4nameE@Base 0.4.2
 _ZN10lightspark9ClassNameINS_16IEventDispatcherEE4nameE@Base 0.4.2
 _ZN10lightspark9ClassNameINS_17ApplicationDomainEE4nameE@Base 0.4.2
 _ZN10lightspark9ClassNameINS_17ExternalInterfaceEE4nameE@Base 0.4.2
 _ZN10lightspark9ClassNameINS_17InteractiveObjectEE4nameE@Base 0.4.2
 _ZN10lightspark9ClassNameINS_18SecurityErrorEventEE4nameE@Base 0.4.2
 _ZN10lightspark9ClassNameINS_19URLLoaderDataFormatEE4nameE@Base 0.4.2
 _ZN10lightspark9ClassNameINS_22DisplayObjectContainerEE4nameE@Base 0.4.2
 _ZN10lightspark9ClassNameINS_4DateEE4nameE@Base 0.4.2
 _ZN10lightspark9ClassNameINS_4FontEE4nameE@Base 0.4.2
 _ZN10lightspark9ClassNameINS_4MathEE4nameE@Base 0.4.2
 _ZN10lightspark9ClassNameINS_5ArrayEE4nameE@Base 0.4.2
 _ZN10lightspark9ClassNameINS_5EventEE4nameE@Base 0.4.2
 _ZN10lightspark9ClassNameINS_5PointEE4nameE@Base 0.4.2
 _ZN10lightspark9ClassNameINS_5ProxyEE4nameE@Base 0.4.2
 _ZN10lightspark9ClassNameINS_5ShapeEE4nameE@Base 0.4.2
 _ZN10lightspark9ClassNameINS_5SoundEE4nameE@Base 0.4.2
 _ZN10lightspark9ClassNameINS_5StageEE4nameE@Base 0.4.2
 _ZN10lightspark9ClassNameINS_5TimerEE4nameE@Base 0.4.2
 _ZN10lightspark9ClassNameINS_5VideoEE4nameE@Base 0.4.2
 _ZN10lightspark9ClassNameINS_6BitmapEE4nameE@Base 0.4.2
 _ZN10lightspark9ClassNameINS_6LoaderEE4nameE@Base 0.4.2
 _ZN10lightspark9ClassNameINS_6NumberEE4nameE@Base 0.4.2
 _ZN10lightspark9ClassNameINS_6RegExpEE4nameE@Base 0.4.2
 _ZN10lightspark9ClassNameINS_6SpriteEE4nameE@Base 0.4.2
 _ZN10lightspark9ClassNameINS_7ASQNameEE4nameE@Base 0.4.2
 _ZN10lightspark9ClassNameINS_7BooleanEE4nameE@Base 0.4.2
 _ZN10lightspark9ClassNameINS_7IntegerEE4nameE@Base 0.4.2
 _ZN10lightspark9ClassNameINS_8ASObjectEE4nameE@Base 0.4.2
 _ZN10lightspark9ClassNameINS_8ASStringEE4nameE@Base 0.4.2
 _ZN10lightspark9ClassNameINS_8GraphicsEE4nameE@Base 0.4.2
 _ZN10lightspark9ClassNameINS_8SecurityEE4nameE@Base 0.4.2
 _ZN10lightspark9ClassNameINS_8UIntegerEE4nameE@Base 0.4.2
 _ZN10lightspark9ClassNameINS_9ByteArrayEE4nameE@Base 0.4.2
 _ZN10lightspark9ClassNameINS_9IFunctionEE4nameE@Base 0.4.2
 _ZN10lightspark9ClassNameINS_9MovieClipEE4nameE@Base 0.4.2
 _ZN10lightspark9ClassNameINS_9NamespaceEE4nameE@Base 0.4.2
 _ZN10lightspark9ClassNameINS_9NetStreamEE4nameE@Base 0.4.2
 _ZN10lightspark9ClassNameINS_9RectangleEE4nameE@Base 0.4.2
 _ZN10lightspark9ClassNameINS_9TextEventEE4nameE@Base 0.4.2
 _ZN10lightspark9ClassNameINS_9TextFieldEE4nameE@Base 0.4.2
 _ZN10lightspark9ClassNameINS_9TransformEE4nameE@Base 0.4.2
 _ZN10lightspark9ClassNameINS_9URLLoaderEE4nameE@Base 0.4.2
 _ZN10lightsparklsERSoRKNS_11tiny_stringE@Base 0.4.2
 _ZN11sync_stream13provideBufferEi@Base 0.4.2
 _ZN11sync_stream5writeEPci@Base 0.4.2
 _ZN11sync_stream7destroyEv@Base 0.4.2
 _ZN11sync_stream7getFreeEv@Base 0.4.2
 _ZN11sync_streamC1Ev@Base 0.4.2
 _ZN11sync_streamC2Ev@Base 0.4.2
 _ZN11sync_streamD0Ev@Base 0.4.2
 _ZN11sync_streamD1Ev@Base 0.4.2
 _ZN11sync_streamD2Ev@Base 0.4.2
 _ZN11zlib_filterC1Ev@Base 0.4.2
 _ZN11zlib_filterC2Ev@Base 0.4.2
 _ZN11zlib_filterD0Ev@Base 0.4.2
 _ZN11zlib_filterD1Ev@Base 0.4.2
 _ZN11zlib_filterD2Ev@Base 0.4.2
 _ZN16zlib_file_filter13provideBufferEi@Base 0.4.2
 _ZN16zlib_file_filterC1EPKc@Base 0.4.2
 _ZN16zlib_file_filterC2EPKc@Base 0.4.2
 _ZN3Log11initLoggingE9LOG_LEVEL@Base 0.4.2
 _ZN3Log9log_levelE@Base 0.4.2
 _ZN3LogC1E9LOG_LEVEL@Base 0.4.2
 _ZN3LogC2E9LOG_LEVEL@Base 0.4.2
 _ZN3LogD1Ev@Base 0.4.2
 _ZN3LogD2Ev@Base 0.4.2
 _ZN3LogclEv@Base 0.4.2
 _ZNK10lightspark10Class_base10isSubClassEPKS0_@Base 0.4.2
 _ZNK10lightspark10Class_base13getInterfacesEv@Base 0.4.2
 _ZNK10lightspark10Class_base13linkInterfaceEPNS_8ASObjectE@Base 0.4.2
 _ZNK10lightspark10Class_base21getQualifiedClassNameEv@Base 0.4.2
 _ZNK10lightspark11SystemState14isShuttingDownEv@Base 0.4.2
 _ZNK10lightspark8ASObject18getActualPrototypeEv@Base 0.4.2
 _ZNK10lightspark8ASObject5checkEv@Base 0.4.2
 _ZNK10lightspark8ASString13toString_privEv@Base 0.4.2
 _ZNSt11_Deque_baseISt4pairIPN10lightspark15EventDispatcherEPNS1_5EventEESaIS6_EED2Ev@Base 0.4.2
 _ZNSt4pairIKN10lightspark12nameAndLevelES_INS0_11tiny_stringENS0_7obj_varEEEC1IS1_S5_EEOS_IT_T0_E@Base 0.4.2
 _ZNSt6vectorIPN10lightspark10Class_baseESaIS2_EE13_M_insert_auxIIRKS2_EEEvN9__gnu_cxx17__normal_iteratorIPS2_S4_EEDpOT_@Base 0.4.2
 _ZNSt6vectorISt17_Rb_tree_iteratorISt4pairIKN10lightspark12nameAndLevelES1_INS2_11tiny_stringENS2_7obj_varEEEESaIS9_EE14_M_fill_insertEN9__gnu_cxx17__normal_iteratorIPS9_SB_EEjRKS9_@Base 0.4.2-1
 _ZNSt8_Rb_treeIN10lightspark11tiny_stringESt4pairIKS1_PNS0_10Class_baseEESt10_Select1stIS6_ESt4lessIS1_ESaIS6_EE10_M_insert_EPKSt18_Rb_tree_node_baseSF_RKS6_@Base 0.4.2
 _ZNSt8_Rb_treeIN10lightspark11tiny_stringESt4pairIKS1_PNS0_10Class_baseEESt10_Select1stIS6_ESt4lessIS1_ESaIS6_EE16_M_insert_uniqueERKS6_@Base 0.4.2-1
 _ZNSt8_Rb_treeIN10lightspark11tiny_stringESt4pairIKS1_PNS0_10Class_baseEESt10_Select1stIS6_ESt4lessIS1_ESaIS6_EE8_M_eraseEPSt13_Rb_tree_nodeIS6_E@Base 0.4.2
 _ZNSt8_Rb_treeIN10lightspark11tiny_stringESt4pairIKS1_St4listINS0_8listenerESaIS5_EEESt10_Select1stIS8_ESt4lessIS1_ESaIS8_EE10_M_insert_EPKSt18_Rb_tree_node_baseSH_RKS8_@Base 0.4.2
 _ZNSt8_Rb_treeIN10lightspark11tiny_stringESt4pairIKS1_St4listINS0_8listenerESaIS5_EEESt10_Select1stIS8_ESt4lessIS1_ESaIS8_EE16_M_insert_uniqueERKS8_@Base 0.4.2-1
 _ZNSt8_Rb_treeIN10lightspark11tiny_stringESt4pairIKS1_St4listINS0_8listenerESaIS5_EEESt10_Select1stIS8_ESt4lessIS1_ESaIS8_EE7_M_copyEPKSt13_Rb_tree_nodeIS8_EPSG_@Base 0.4.2
 _ZNSt8_Rb_treeIN10lightspark11tiny_stringESt4pairIKS1_St4listINS0_8listenerESaIS5_EEESt10_Select1stIS8_ESt4lessIS1_ESaIS8_EE8_M_eraseEPSt13_Rb_tree_nodeIS8_E@Base 0.4.2
 _ZNSt8_Rb_treeIN10lightspark12nameAndLevelESt4pairIKS1_S2_INS0_11tiny_stringENS0_7obj_varEEESt10_Select1stIS7_ESt4lessIS1_ESaIS7_EE10_M_insert_EPKSt18_Rb_tree_node_baseSG_RKS7_@Base 0.4.2
 _ZNSt8_Rb_treeIN10lightspark12nameAndLevelESt4pairIKS1_S2_INS0_11tiny_stringENS0_7obj_varEEESt10_Select1stIS7_ESt4lessIS1_ESaIS7_EE14_M_create_nodeIIRKS7_EEEPSt13_Rb_tree_nodeIS7_EDpOT_@Base 0.4.2
 _ZNSt8_Rb_treeIN10lightspark12nameAndLevelESt4pairIKS1_S2_INS0_11tiny_stringENS0_7obj_varEEESt10_Select1stIS7_ESt4lessIS1_ESaIS7_EE15_M_insert_equalERKS7_@Base 0.4.2
 _ZNSt8_Rb_treeIN10lightspark12nameAndLevelESt4pairIKS1_S2_INS0_11tiny_stringENS0_7obj_varEEESt10_Select1stIS7_ESt4lessIS1_ESaIS7_EE16_M_insert_equal_ESt23_Rb_tree_const_iteratorIS7_ERKS7_@Base 0.4.2
 _ZNSt8_Rb_treeIN10lightspark12nameAndLevelESt4pairIKS1_S2_INS0_11tiny_stringENS0_7obj_varEEESt10_Select1stIS7_ESt4lessIS1_ESaIS7_EE8_M_eraseEPSt13_Rb_tree_nodeIS7_E@Base 0.4.2
 _ZSt22__uninitialized_copy_aIN9__gnu_cxx17__normal_iteratorIPKN10lightspark6FILTERESt6vectorIS3_SaIS3_EEEEPS3_S3_ET0_T_SC_SB_RSaIT1_E@Base 0.4.2
 _ZSt22__uninitialized_move_aIPN10lightspark10GlyphShapeES2_SaIS1_EET0_T_S5_S4_RT1_@Base 0.4.2-1
 _ZSt22__uninitialized_move_aIPN10lightspark10class_infoES2_SaIS1_EET0_T_S5_S4_RT1_@Base 0.4.2
 _ZSt22__uninitialized_move_aIPN10lightspark11method_infoES2_SaIS1_EET0_T_S5_S4_RT1_@Base 0.4.2
 _ZSt22__uninitialized_move_aIPN10lightspark11ns_set_infoES2_SaIS1_EET0_T_S5_S4_RT1_@Base 0.4.2
 _ZSt22__uninitialized_move_aIPN10lightspark11script_infoES2_SaIS1_EET0_T_S5_S4_RT1_@Base 0.4.2
 _ZSt22__uninitialized_move_aIPN10lightspark11string_infoES2_SaIS1_EET0_T_S5_S4_RT1_@Base 0.4.2
 _ZSt22__uninitialized_move_aIPN10lightspark11traits_infoES2_SaIS1_EET0_T_S5_S4_RT1_@Base 0.4.2
 _ZSt22__uninitialized_move_aIPN10lightspark12BUTTONRECORDES2_SaIS1_EET0_T_S5_S4_RT1_@Base 0.4.2
 _ZSt22__uninitialized_move_aIPN10lightspark13REGISTERPARAMES2_SaIS1_EET0_T_S5_S4_RT1_@Base 0.4.2
 _ZSt22__uninitialized_move_aIPN10lightspark13instance_infoES2_SaIS1_EET0_T_S5_S4_RT1_@Base 0.4.2
 _ZSt22__uninitialized_move_aIPN10lightspark13metadata_infoES2_SaIS1_EET0_T_S5_S4_RT1_@Base 0.4.2
 _ZSt22__uninitialized_move_aIPN10lightspark14multiname_infoES2_SaIS1_EET0_T_S5_S4_RT1_@Base 0.4.2
 _ZSt22__uninitialized_move_aIPN10lightspark16BUTTONCONDACTIONES2_SaIS1_EET0_T_S5_S4_RT1_@Base 0.4.2-1
 _ZSt22__uninitialized_move_aIPN10lightspark16method_body_infoES2_SaIS1_EET0_T_S5_S4_RT1_@Base 0.4.2
 _ZSt22__uninitialized_move_aIPN10lightspark5SHAPEES2_SaIS1_EET0_T_S5_S4_RT1_@Base 0.4.2
 _ZSt22__uninitialized_move_aIPN10lightspark6FILTERES2_SaIS1_EET0_T_S5_S4_RT1_@Base 0.4.2
 _ZSt22__uninitialized_move_aIPN10lightspark6STRINGES2_SaIS1_EET0_T_S5_S4_RT1_@Base 0.4.2
 _ZTI11sync_stream@Base 0.4.2
 _ZTI16zlib_file_filter@Base 0.4.2
 _ZTIN10lightspark10Class_baseE@Base 0.4.2
 _ZTIN10lightspark10DownloaderE@Base 0.4.2
 _ZTIN10lightspark19CurlDownloadManagerE@Base 0.4.2
 _ZTIN10lightspark5EventE@Base 0.4.2
 _ZTS11sync_stream@Base 0.4.2
 _ZTS16zlib_file_filter@Base 0.4.2
 _ZTSN10lightspark10Class_baseE@Base 0.4.2
 _ZTSN10lightspark10DownloaderE@Base 0.4.2
 _ZTSN10lightspark19CurlDownloadManagerE@Base 0.4.2
 _ZTSN10lightspark5EventE@Base 0.4.2
 _ZTV11sync_stream@Base 0.4.2
 _ZTV16zlib_file_filter@Base 0.4.2
 _ZTVN10lightspark10Class_baseE@Base 0.4.2
 _ZTVN10lightspark10DownloaderE@Base 0.4.2
 _ZTVN10lightspark19CurlDownloadManagerE@Base 0.4.2
 _ZTVN10lightspark5EventE@Base 0.4.2
